target datalayout = "e-m:e-p270:32:32-p271:32:32-p272:64:64-i64:64-i128:128-f80:128-n8:16:32:64-S128"
target triple = "x86_64-pc-linux-gnu"

%struct.thread_event = type { i64, i32 }
%struct.rb_internal_thread_event_data = type { i64 }

@timeline_cursor = internal global i32 0, align 4
@event_timeline = internal global [1024 x %struct.thread_event] zeroinitializer, align 16
@.str.6 = private unnamed_addr constant [55 x i8] c"[thread=%lx] `started` event can't be preceded by `%s`\00", align 1
@.str.7 = private unnamed_addr constant [77 x i8] c"[thread=%lx] `ready` must be preceded by `started` or `suspended`, got: `%s`\00", align 1
@.str.8 = private unnamed_addr constant [62 x i8] c"[thread=%lx] `resumed` must be preceded by `ready`, got: `%s`\00", align 1
@.str.9 = private unnamed_addr constant [66 x i8] c"[thread=%lx] `suspended` must be preceded by `resumed`, got: `%s`\00", align 1
@.str.10 = private unnamed_addr constant [78 x i8] c"[thread=%lx] `exited` must be preceded by `resumed` or `suspended`, got: `%s`\00", align 1
@.str.11 = private unnamed_addr constant [59 x i8] c"TestThreadInstrumentation: ran out of event_timeline space\00", align 1
@stderr = external global ptr, align 8
@.str.12 = private unnamed_addr constant [2 x i8] c"\0A\00", align 1
@.str.13 = private unnamed_addr constant [8 x i8] c"started\00", align 1
@.str.14 = private unnamed_addr constant [6 x i8] c"ready\00", align 1
@.str.15 = private unnamed_addr constant [8 x i8] c"resumed\00", align 1
@.str.16 = private unnamed_addr constant [10 x i8] c"suspended\00", align 1
@.str.17 = private unnamed_addr constant [7 x i8] c"exited\00", align 1
@.str.18 = private unnamed_addr constant [9 x i8] c"no-event\00", align 1

; Function Attrs: nounwind sspstrong uwtable
define internal ptr @event_name(i32 noundef %0) #0 {
  %2 = alloca ptr, align 8
  %3 = alloca i32, align 4
  store i32 %0, ptr %3, align 4, !tbaa !13
  %4 = load i32, ptr %3, align 4, !tbaa !13
  switch i32 %4, label %10 [
    i32 1, label %5
    i32 2, label %6
    i32 4, label %7
    i32 8, label %8
    i32 16, label %9
  ]

5:                                                ; preds = %1
  store ptr @.str.13, ptr %2, align 8
  br label %11

6:                                                ; preds = %1
  store ptr @.str.14, ptr %2, align 8
  br label %11

7:                                                ; preds = %1
  store ptr @.str.15, ptr %2, align 8
  br label %11

8:                                                ; preds = %1
  store ptr @.str.16, ptr %2, align 8
  br label %11

9:                                                ; preds = %1
  store ptr @.str.17, ptr %2, align 8
  br label %11

10:                                               ; preds = %1
  store ptr @.str.18, ptr %2, align 8
  br label %11

11:                                               ; preds = %10, %9, %8, %7, %6, %5
  %12 = load ptr, ptr %2, align 8
  ret ptr %12
}

; Function Attrs: inlinehint nounwind sspstrong memory(argmem: readwrite, inaccessiblemem: readwrite) uwtable
define internal i32 @rbimpl_atomic_fetch_add(ptr noundef nonnull %0, i32 noundef %1) #4 {
  %3 = alloca ptr, align 8
  %4 = alloca i32, align 4
  %5 = alloca i32, align 4
  %6 = alloca i32, align 4
  store ptr %0, ptr %3, align 8, !tbaa !36
  store i32 %1, ptr %4, align 4, !tbaa !13
  %7 = load ptr, ptr %3, align 8, !tbaa !36
  %8 = load i32, ptr %4, align 4, !tbaa !13
  store i32 %8, ptr %5, align 4, !tbaa !13
  %9 = load i32, ptr %5, align 4
  %10 = atomicrmw volatile add ptr %7, i32 %9 seq_cst, align 4
  store i32 %10, ptr %6, align 4
  %11 = load i32, ptr %6, align 4, !tbaa !13
  ret i32 %11
}

; Function Attrs: nounwind sspstrong uwtable
define internal void @unexpected(i1 noundef zeroext %0, ptr noundef %1, i64 noundef %2, i32 noundef %3) #0 {
  %5 = alloca i8, align 1
  %6 = alloca ptr, align 8
  %7 = alloca i64, align 8
  %8 = alloca i32, align 4
  %9 = alloca ptr, align 8
  %10 = zext i1 %0 to i8
  store i8 %10, ptr %5, align 1, !tbaa !27
  store ptr %1, ptr %6, align 8, !tbaa !32
  store i64 %2, ptr %7, align 8, !tbaa !6
  store i32 %3, ptr %8, align 4, !tbaa !13
  call void @llvm.lifetime.start.p0(i64 8, ptr %9) #11
  %11 = load i32, ptr %8, align 4, !tbaa !13
  %12 = call ptr @event_name(i32 noundef %11)
  store ptr %12, ptr %9, align 8, !tbaa !32
  %13 = load i8, ptr %5, align 1, !tbaa !27, !range !29, !noundef !30
  %14 = trunc i8 %13 to i1
  br i1 %14, label %15, label %19

15:                                               ; preds = %4
  %16 = load ptr, ptr %6, align 8, !tbaa !32
  %17 = load i64, ptr %7, align 8, !tbaa !6
  %18 = load ptr, ptr %9, align 8, !tbaa !32
  call void (ptr, ...) @rb_bug(ptr noundef %16, i64 noundef %17, ptr noundef %18) #14
  unreachable

19:                                               ; preds = %4
  %20 = load ptr, ptr @stderr, align 8, !tbaa !34
  %21 = load ptr, ptr %6, align 8, !tbaa !32
  %22 = load i64, ptr %7, align 8, !tbaa !6
  %23 = load ptr, ptr %9, align 8, !tbaa !32
  %24 = call i32 (ptr, i32, ptr, ...) @__fprintf_chk(ptr noundef %20, i32 noundef 1, ptr noundef %21, i64 noundef %22, ptr noundef %23)
  %25 = load ptr, ptr @stderr, align 8, !tbaa !34
  %26 = call i32 (ptr, i32, ptr, ...) @__fprintf_chk(ptr noundef %25, i32 noundef 1, ptr noundef @.str.12)
  br label %27

27:                                               ; preds = %19
  call void @llvm.lifetime.end.p0(i64 8, ptr %9) #11
  ret void
}

; Function Attrs: nounwind sspstrong uwtable
define internal i32 @find_last_event(i64 noundef %0) #0 {
  %2 = alloca i32, align 4
  %3 = alloca i64, align 8
  %4 = alloca i32, align 4
  %5 = alloca i32, align 4
  store i64 %0, ptr %3, align 8, !tbaa !6
  call void @llvm.lifetime.start.p0(i64 4, ptr %4) #11
  %6 = load i32, ptr @timeline_cursor, align 4, !tbaa !13
  store i32 %6, ptr %4, align 4, !tbaa !13
  %7 = load i32, ptr %4, align 4, !tbaa !13
  %8 = icmp ne i32 %7, 0
  br i1 %8, label %9, label %31

9:                                                ; preds = %1
  br label %10

10:                                               ; preds = %27, %9
  %11 = load i32, ptr %4, align 4, !tbaa !13
  %12 = zext i32 %11 to i64
  %13 = getelementptr inbounds nuw [1024 x %struct.thread_event], ptr @event_timeline, i64 0, i64 %12
  %14 = getelementptr inbounds nuw %struct.thread_event, ptr %13, i32 0, i32 0
  %15 = load i64, ptr %14, align 16, !tbaa !15
  %16 = load i64, ptr %3, align 8, !tbaa !6
  %17 = icmp eq i64 %15, %16
  br i1 %17, label %18, label %24

18:                                               ; preds = %10
  %19 = load i32, ptr %4, align 4, !tbaa !13
  %20 = zext i32 %19 to i64
  %21 = getelementptr inbounds nuw [1024 x %struct.thread_event], ptr @event_timeline, i64 0, i64 %20
  %22 = getelementptr inbounds nuw %struct.thread_event, ptr %21, i32 0, i32 1
  %23 = load i32, ptr %22, align 8, !tbaa !17
  store i32 %23, ptr %2, align 4
  store i32 1, ptr %5, align 4
  br label %32

24:                                               ; preds = %10
  %25 = load i32, ptr %4, align 4, !tbaa !13
  %26 = add i32 %25, -1
  store i32 %26, ptr %4, align 4, !tbaa !13
  br label %27

27:                                               ; preds = %24
  %28 = load i32, ptr %4, align 4, !tbaa !13
  %29 = icmp ugt i32 %28, 0
  br i1 %29, label %10, label %30, !llvm.loop !31

30:                                               ; preds = %27
  br label %31

31:                                               ; preds = %30, %1
  store i32 0, ptr %2, align 4
  store i32 1, ptr %5, align 4
  br label %32

32:                                               ; preds = %31, %18
  call void @llvm.lifetime.end.p0(i64 4, ptr %4) #11
  %33 = load i32, ptr %2, align 4
  ret i32 %33
}

; Function Attrs: nounwind sspstrong uwtable
define internal void @ex_callback(i32 noundef %0, ptr noundef %1, ptr noundef %2) #0 {
  %4 = alloca i32, align 4
  %5 = alloca ptr, align 8
  %6 = alloca ptr, align 8
  %7 = alloca i32, align 4
  %8 = alloca i8, align 1
  %9 = alloca i32, align 4
  store i32 %0, ptr %4, align 4, !tbaa !13
  store ptr %1, ptr %5, align 8, !tbaa !23
  store ptr %2, ptr %6, align 8, !tbaa !21
  call void @llvm.lifetime.start.p0(i64 4, ptr %7) #11
  %10 = load ptr, ptr %5, align 8, !tbaa !23
  %11 = getelementptr inbounds nuw %struct.rb_internal_thread_event_data, ptr %10, i32 0, i32 0
  %12 = load i64, ptr %11, align 8, !tbaa !25
  %13 = call i32 @find_last_event(i64 noundef %12)
  store i32 %13, ptr %7, align 4, !tbaa !13
  call void @llvm.lifetime.start.p0(i64 1, ptr %8) #11
  %14 = load ptr, ptr %6, align 8, !tbaa !21
  %15 = icmp ne ptr %14, null
  %16 = zext i1 %15 to i8
  store i8 %16, ptr %8, align 1, !tbaa !27
  %17 = load i32, ptr %7, align 4, !tbaa !13
  %18 = icmp ne i32 %17, 0
  br i1 %18, label %19, label %79

19:                                               ; preds = %3
  %20 = load i32, ptr %4, align 4, !tbaa !13
  switch i32 %20, label %78 [
    i32 1, label %21
    i32 2, label %28
    i32 4, label %42
    i32 8, label %53
    i32 16, label %64
  ]

21:                                               ; preds = %19
  %22 = load i8, ptr %8, align 1, !tbaa !27, !range !29, !noundef !30
  %23 = trunc i8 %22 to i1
  %24 = load ptr, ptr %5, align 8, !tbaa !23
  %25 = getelementptr inbounds nuw %struct.rb_internal_thread_event_data, ptr %24, i32 0, i32 0
  %26 = load i64, ptr %25, align 8, !tbaa !25
  %27 = load i32, ptr %7, align 4, !tbaa !13
  call void @unexpected(i1 noundef zeroext %23, ptr noundef @.str.6, i64 noundef %26, i32 noundef %27)
  br label %78

28:                                               ; preds = %19
  %29 = load i32, ptr %7, align 4, !tbaa !13
  %30 = icmp ne i32 %29, 1
  br i1 %30, label %31, label %41

31:                                               ; preds = %28
  %32 = load i32, ptr %7, align 4, !tbaa !13
  %33 = icmp ne i32 %32, 8
  br i1 %33, label %34, label %41

34:                                               ; preds = %31
  %35 = load i8, ptr %8, align 1, !tbaa !27, !range !29, !noundef !30
  %36 = trunc i8 %35 to i1
  %37 = load ptr, ptr %5, align 8, !tbaa !23
  %38 = getelementptr inbounds nuw %struct.rb_internal_thread_event_data, ptr %37, i32 0, i32 0
  %39 = load i64, ptr %38, align 8, !tbaa !25
  %40 = load i32, ptr %7, align 4, !tbaa !13
  call void @unexpected(i1 noundef zeroext %36, ptr noundef @.str.7, i64 noundef %39, i32 noundef %40)
  br label %41

41:                                               ; preds = %34, %31, %28
  br label %78

42:                                               ; preds = %19
  %43 = load i32, ptr %7, align 4, !tbaa !13
  %44 = icmp ne i32 %43, 2
  br i1 %44, label %45, label %52

45:                                               ; preds = %42
  %46 = load i8, ptr %8, align 1, !tbaa !27, !range !29, !noundef !30
  %47 = trunc i8 %46 to i1
  %48 = load ptr, ptr %5, align 8, !tbaa !23
  %49 = getelementptr inbounds nuw %struct.rb_internal_thread_event_data, ptr %48, i32 0, i32 0
  %50 = load i64, ptr %49, align 8, !tbaa !25
  %51 = load i32, ptr %7, align 4, !tbaa !13
  call void @unexpected(i1 noundef zeroext %47, ptr noundef @.str.8, i64 noundef %50, i32 noundef %51)
  br label %52

52:                                               ; preds = %45, %42
  br label %78

53:                                               ; preds = %19
  %54 = load i32, ptr %7, align 4, !tbaa !13
  %55 = icmp ne i32 %54, 4
  br i1 %55, label %56, label %63

56:                                               ; preds = %53
  %57 = load i8, ptr %8, align 1, !tbaa !27, !range !29, !noundef !30
  %58 = trunc i8 %57 to i1
  %59 = load ptr, ptr %5, align 8, !tbaa !23
  %60 = getelementptr inbounds nuw %struct.rb_internal_thread_event_data, ptr %59, i32 0, i32 0
  %61 = load i64, ptr %60, align 8, !tbaa !25
  %62 = load i32, ptr %7, align 4, !tbaa !13
  call void @unexpected(i1 noundef zeroext %58, ptr noundef @.str.9, i64 noundef %61, i32 noundef %62)
  br label %63

63:                                               ; preds = %56, %53
  br label %78

64:                                               ; preds = %19
  %65 = load i32, ptr %7, align 4, !tbaa !13
  %66 = icmp ne i32 %65, 4
  br i1 %66, label %67, label %77

67:                                               ; preds = %64
  %68 = load i32, ptr %7, align 4, !tbaa !13
  %69 = icmp ne i32 %68, 8
  br i1 %69, label %70, label %77

70:                                               ; preds = %67
  %71 = load i8, ptr %8, align 1, !tbaa !27, !range !29, !noundef !30
  %72 = trunc i8 %71 to i1
  %73 = load ptr, ptr %5, align 8, !tbaa !23
  %74 = getelementptr inbounds nuw %struct.rb_internal_thread_event_data, ptr %73, i32 0, i32 0
  %75 = load i64, ptr %74, align 8, !tbaa !25
  %76 = load i32, ptr %7, align 4, !tbaa !13
  call void @unexpected(i1 noundef zeroext %72, ptr noundef @.str.10, i64 noundef %75, i32 noundef %76)
  br label %77

77:                                               ; preds = %70, %67, %64
  br label %78

78:                                               ; preds = %19, %77, %63, %52, %41, %21
  br label %79

79:                                               ; preds = %78, %3
  call void @llvm.lifetime.start.p0(i64 4, ptr %9) #11
  %80 = call i32 @rbimpl_atomic_fetch_add(ptr noundef @timeline_cursor, i32 noundef 1) #13
  store i32 %80, ptr %9, align 4, !tbaa !13
  %81 = load i32, ptr %9, align 4, !tbaa !13
  %82 = icmp uge i32 %81, 1024
  br i1 %82, label %83, label %84

83:                                               ; preds = %79
  call void (ptr, ...) @rb_bug(ptr noundef @.str.11) #14
  unreachable

84:                                               ; preds = %79
  %85 = load ptr, ptr %5, align 8, !tbaa !23
  %86 = getelementptr inbounds nuw %struct.rb_internal_thread_event_data, ptr %85, i32 0, i32 0
  %87 = load i64, ptr %86, align 8, !tbaa !25
  %88 = load i32, ptr %9, align 4, !tbaa !13
  %89 = zext i32 %88 to i64
  %90 = getelementptr inbounds nuw [1024 x %struct.thread_event], ptr @event_timeline, i64 0, i64 %89
  %91 = getelementptr inbounds nuw %struct.thread_event, ptr %90, i32 0, i32 0
  store i64 %87, ptr %91, align 16, !tbaa !15
  %92 = load i32, ptr %4, align 4, !tbaa !13
  %93 = load i32, ptr %9, align 4, !tbaa !13
  %94 = zext i32 %93 to i64
  %95 = getelementptr inbounds nuw [1024 x %struct.thread_event], ptr @event_timeline, i64 0, i64 %94
  %96 = getelementptr inbounds nuw %struct.thread_event, ptr %95, i32 0, i32 1
  store i32 %92, ptr %96, align 8, !tbaa !17
  call void @llvm.lifetime.end.p0(i64 4, ptr %9) #11
  call void @llvm.lifetime.end.p0(i64 1, ptr %8) #11
  call void @llvm.lifetime.end.p0(i64 4, ptr %7) #11
  ret void
}