; Function Attrs: nounwind sspstrong uwtable
define internal void @ex_callback(i32 noundef %0, ptr noundef readonly captures(none) %1, ptr noundef readnone captures(address_is_null) %2) #0 {
  %4 = load i64, ptr %1, align 8, !tbaa !23
  %5 = load i32, ptr @timeline_cursor, align 4, !tbaa !13
  %.not.i = icmp eq i32 %5, 0
  br i1 %.not.i, label %find_last_event.exit.thread, label %.preheader.i

.preheader.i:                                     ; preds = %3, %10
  %.0.i = phi i32 [ %11, %10 ], [ %5, %3 ]
  %6 = zext i32 %.0.i to i64
  %7 = getelementptr inbounds nuw [1024 x %struct.thread_event], ptr @event_timeline, i64 0, i64 %6
  %8 = load i64, ptr %7, align 16, !tbaa !15
  %9 = icmp eq i64 %8, %4
  br i1 %9, label %find_last_event.exit, label %10

10:                                               ; preds = %.preheader.i
  %11 = add i32 %.0.i, -1
  %.not10.i = icmp eq i32 %11, 0
  br i1 %.not10.i, label %find_last_event.exit.thread, label %.preheader.i, !llvm.loop !25

find_last_event.exit:                             ; preds = %.preheader.i
  %12 = getelementptr inbounds nuw i8, ptr %7, i64 8
  %13 = load i32, ptr %12, align 8, !tbaa !17
  %.not49 = icmp eq ptr %2, null
  %.not = icmp eq i32 %13, 0
  br i1 %.not, label %find_last_event.exit.thread, label %14

14:                                               ; preds = %find_last_event.exit
  switch i32 %0, label %find_last_event.exit.thread [
    i32 1, label %15
    i32 2, label %24
    i32 4, label %31
    i32 8, label %39
    i32 16, label %47
  ]

15:                                               ; preds = %14
  switch i32 %13, label %20 [
    i32 1, label %event_name.exit.i
    i32 2, label %16
    i32 4, label %17
    i32 8, label %18
    i32 16, label %19
  ]

16:                                               ; preds = %15
  br label %event_name.exit.i

17:                                               ; preds = %15
  br label %event_name.exit.i

18:                                               ; preds = %15
  br label %event_name.exit.i

19:                                               ; preds = %15
  br label %event_name.exit.i

20:                                               ; preds = %15
  br label %event_name.exit.i

event_name.exit.i:                                ; preds = %20, %19, %18, %17, %16, %15
  %.0.i.i = phi ptr [ @.str.18, %20 ], [ @.str.17, %19 ], [ @.str.16, %18 ], [ @.str.15, %17 ], [ @.str.14, %16 ], [ @.str.13, %15 ]
  br i1 %.not49, label %unexpected.exit, label %21

21:                                               ; preds = %event_name.exit.i
  tail call void (ptr, ...) @rb_bug(ptr noundef nonnull @.str.6, i64 noundef %4, ptr noundef nonnull %.0.i.i) #6
  unreachable

unexpected.exit:                                  ; preds = %event_name.exit.i
  %22 = load ptr, ptr @stderr, align 8, !tbaa !26
  %23 = tail call i32 (ptr, i32, ptr, ...) @__fprintf_chk(ptr noundef %22, i32 noundef 1, ptr noundef nonnull @.str.6, i64 noundef %4, ptr noundef nonnull %.0.i.i) #5
  br label %find_last_event.exit.thread.sink.split

24:                                               ; preds = %14
  switch i32 %13, label %27 [
    i32 8, label %find_last_event.exit.thread
    i32 1, label %find_last_event.exit.thread
    i32 16, label %26
    i32 2, label %event_name.exit.i35
    i32 4, label %25
  ]

25:                                               ; preds = %24
  br label %event_name.exit.i35

26:                                               ; preds = %24
  br label %event_name.exit.i35

27:                                               ; preds = %24
  br label %event_name.exit.i35

event_name.exit.i35:                              ; preds = %24, %27, %26, %25
  %.0.i.i36 = phi ptr [ @.str.18, %27 ], [ @.str.17, %26 ], [ @.str.15, %25 ], [ @.str.14, %24 ]
  br i1 %.not49, label %unexpected.exit37, label %28

28:                                               ; preds = %event_name.exit.i35
  tail call void (ptr, ...) @rb_bug(ptr noundef nonnull @.str.7, i64 noundef %4, ptr noundef nonnull %.0.i.i36) #6
  unreachable

unexpected.exit37:                                ; preds = %event_name.exit.i35
  %29 = load ptr, ptr @stderr, align 8, !tbaa !26
  %30 = tail call i32 (ptr, i32, ptr, ...) @__fprintf_chk(ptr noundef %29, i32 noundef 1, ptr noundef nonnull @.str.7, i64 noundef %4, ptr noundef nonnull %.0.i.i36) #5
  br label %find_last_event.exit.thread.sink.split

31:                                               ; preds = %14
  switch i32 %13, label %35 [
    i32 2, label %find_last_event.exit.thread
    i32 1, label %event_name.exit.i38
    i32 16, label %34
    i32 4, label %32
    i32 8, label %33
  ]

32:                                               ; preds = %31
  br label %event_name.exit.i38

33:                                               ; preds = %31
  br label %event_name.exit.i38

34:                                               ; preds = %31
  br label %event_name.exit.i38

35:                                               ; preds = %31
  br label %event_name.exit.i38

event_name.exit.i38:                              ; preds = %31, %35, %34, %33, %32
  %.0.i.i39 = phi ptr [ @.str.18, %35 ], [ @.str.17, %34 ], [ @.str.16, %33 ], [ @.str.15, %32 ], [ @.str.13, %31 ]
  br i1 %.not49, label %unexpected.exit40, label %36

36:                                               ; preds = %event_name.exit.i38
  tail call void (ptr, ...) @rb_bug(ptr noundef nonnull @.str.8, i64 noundef %4, ptr noundef nonnull %.0.i.i39) #6
  unreachable

unexpected.exit40:                                ; preds = %event_name.exit.i38
  %37 = load ptr, ptr @stderr, align 8, !tbaa !26
  %38 = tail call i32 (ptr, i32, ptr, ...) @__fprintf_chk(ptr noundef %37, i32 noundef 1, ptr noundef nonnull @.str.8, i64 noundef %4, ptr noundef nonnull %.0.i.i39) #5
  br label %find_last_event.exit.thread.sink.split

39:                                               ; preds = %14
  switch i32 %13, label %43 [
    i32 4, label %find_last_event.exit.thread
    i32 1, label %event_name.exit.i41
    i32 2, label %40
    i32 16, label %42
    i32 8, label %41
  ]

40:                                               ; preds = %39
  br label %event_name.exit.i41

41:                                               ; preds = %39
  br label %event_name.exit.i41

42:                                               ; preds = %39
  br label %event_name.exit.i41

43:                                               ; preds = %39
  br label %event_name.exit.i41

event_name.exit.i41:                              ; preds = %39, %43, %42, %41, %40
  %.0.i.i42 = phi ptr [ @.str.18, %43 ], [ @.str.17, %42 ], [ @.str.16, %41 ], [ @.str.14, %40 ], [ @.str.13, %39 ]
  br i1 %.not49, label %unexpected.exit43, label %44

44:                                               ; preds = %event_name.exit.i41
  tail call void (ptr, ...) @rb_bug(ptr noundef nonnull @.str.9, i64 noundef %4, ptr noundef nonnull %.0.i.i42) #6
  unreachable

unexpected.exit43:                                ; preds = %event_name.exit.i41
  %45 = load ptr, ptr @stderr, align 8, !tbaa !26
  %46 = tail call i32 (ptr, i32, ptr, ...) @__fprintf_chk(ptr noundef %45, i32 noundef 1, ptr noundef nonnull @.str.9, i64 noundef %4, ptr noundef nonnull %.0.i.i42) #5
  br label %find_last_event.exit.thread.sink.split

47:                                               ; preds = %14
  switch i32 %13, label %50 [
    i32 8, label %find_last_event.exit.thread
    i32 4, label %find_last_event.exit.thread
    i32 1, label %event_name.exit.i44
    i32 2, label %48
    i32 16, label %49
  ]

48:                                               ; preds = %47
  br label %event_name.exit.i44

49:                                               ; preds = %47
  br label %event_name.exit.i44

50:                                               ; preds = %47
  br label %event_name.exit.i44

event_name.exit.i44:                              ; preds = %47, %50, %49, %48
  %.0.i.i45 = phi ptr [ @.str.18, %50 ], [ @.str.17, %49 ], [ @.str.14, %48 ], [ @.str.13, %47 ]
  br i1 %.not49, label %unexpected.exit46, label %51

51:                                               ; preds = %event_name.exit.i44
  tail call void (ptr, ...) @rb_bug(ptr noundef nonnull @.str.10, i64 noundef %4, ptr noundef nonnull %.0.i.i45) #6
  unreachable

unexpected.exit46:                                ; preds = %event_name.exit.i44
  %52 = load ptr, ptr @stderr, align 8, !tbaa !26
  %53 = tail call i32 (ptr, i32, ptr, ...) @__fprintf_chk(ptr noundef %52, i32 noundef 1, ptr noundef nonnull @.str.10, i64 noundef %4, ptr noundef nonnull %.0.i.i45) #5
  br label %find_last_event.exit.thread.sink.split

find_last_event.exit.thread.sink.split:           ; preds = %unexpected.exit46, %unexpected.exit43, %unexpected.exit40, %unexpected.exit37, %unexpected.exit
  %54 = load ptr, ptr @stderr, align 8, !tbaa !26
  %55 = tail call i32 (ptr, i32, ptr, ...) @__fprintf_chk(ptr noundef %54, i32 noundef 1, ptr noundef nonnull @.str.12) #5
  br label %find_last_event.exit.thread

find_last_event.exit.thread:                      ; preds = %10, %find_last_event.exit.thread.sink.split, %47, %47, %39, %31, %24, %24, %3, %14, %find_last_event.exit
  %56 = atomicrmw volatile add ptr @timeline_cursor, i32 1 seq_cst, align 4
  %57 = icmp ugt i32 %56, 1023
  br i1 %57, label %58, label %59

58:                                               ; preds = %find_last_event.exit.thread
  tail call void (ptr, ...) @rb_bug(ptr noundef nonnull @.str.11) #6
  unreachable

59:                                               ; preds = %find_last_event.exit.thread
  %60 = load i64, ptr %1, align 8, !tbaa !23
  %61 = zext nneg i32 %56 to i64
  %62 = getelementptr inbounds nuw [1024 x %struct.thread_event], ptr @event_timeline, i64 0, i64 %61
  store i64 %60, ptr %62, align 16, !tbaa !15
  %63 = getelementptr inbounds nuw i8, ptr %62, i64 8
  store i32 %0, ptr %63, align 8, !tbaa !17
  ret void
}